(dp0
S'\x00'
p1
I0
sS'\x83'
p2
I98
sS'\x87'
p3
I102
sS'\x8b'
p4
I106
sS'\x8f'
p5
I110
sS'\x93'
p6
I114
sS'\x97'
p7
I118
sS'\x9b'
p8
I122
sS'\x9f'
p9
I126
sS' '
p10
I3
sS'\xa3'
p11
I130
sS'$'
p12
I7
sS'\xa7'
p13
I134
sS'('
p14
I11
sS'\xab'
p15
I138
sS','
p16
I15
sS'\xaf'
p17
I142
sS'0'
p18
I19
sS'\xb3'
p19
I146
sS'4'
p20
I23
sS'\xb7'
p21
I148
sS'8'
p22
I27
sS'\xbb'
p23
I152
sS'\xbf'
p24
I156
sS'@'
p25
I33
sS'\xc3'
p26
I158
sS'D'
p27
I37
sS'H'
p28
I41
sS'L'
p29
I45
sS'P'
p30
I49
sS'T'
p31
I53
sS'X'
p32
I57
sS'\\'
p33
I61
sS'`'
p34
I64
sS'\xe3'
p35
I161
sS'd'
p36
I68
sS'h'
p37
I72
sS'l'
p38
I76
sS'\xef'
p39
I162
sS'p'
p40
I80
sS't'
p41
I84
sS'x'
p42
I88
sS'|'
p43
I92
sS'\x80'
p44
I95
sS'\x84'
p45
I99
sS'\x88'
p46
I103
sS'\x8c'
p47
I107
sS'\x90'
p48
I111
sS'\x94'
p49
I115
sS'\x98'
p50
I119
sS'\x9c'
p51
I123
sS'\xa0'
p52
I127
sS'#'
p53
I6
sS'\xa4'
p54
I131
sS"'"
p55
I10
sS'\xa8'
p56
I135
sS'+'
p57
I14
sS'\xac'
p58
I139
sS'/'
p59
I18
sS'\xb0'
p60
I143
sS'3'
p61
I22
sS'\xb4'
p62
I147
sS'7'
p63
I26
sS'\xb8'
p64
I149
sS';'
p65
I30
sS'\xbc'
p66
I153
sS'?'
p67
I32
sS'C'
p68
I36
sS'\xc4'
p69
I159
sS'G'
p70
I40
sS'K'
p71
I44
sS'O'
p72
I48
sS'S'
p73
I52
sS'W'
p74
I56
sS'['
p75
I60
sS'_'
p76
I63
sS'c'
p77
I67
sS'g'
p78
I71
sS'k'
p79
I75
sS'o'
p80
I79
sS'\xf0'
p81
I163
sS's'
p82
I83
sS'\xf4'
p83
I164
sS'w'
p84
I87
sS'{'
p85
I91
sS'\x81'
p86
I96
sS'\x85'
p87
I100
sS'\x89'
p88
I104
sS'\n'
p89
I1
sS'\x8d'
p90
I108
sS'\x91'
p91
I112
sS'\x95'
p92
I116
sS'\x99'
p93
I120
sS'\x9d'
p94
I124
sS'\xa1'
p95
I128
sS'"'
p96
I5
sS'\xa5'
p97
I132
sS'&'
p98
I9
sS'\xa9'
p99
I136
sS'*'
p100
I13
sS'\xad'
p101
I140
sS'.'
p102
I17
sS'\xb1'
p103
I144
sS'2'
p104
I21
sS'6'
p105
I25
sS'\xb9'
p106
I150
sS':'
p107
I29
sS'\xbd'
p108
I154
sS'B'
p109
I35
sS'F'
p110
I39
sS'J'
p111
I43
sS'N'
p112
I47
sS'R'
p113
I51
sS'V'
p114
I55
sS'Z'
p115
I59
sS'b'
p116
I66
sS'f'
p117
I70
sS'j'
p118
I74
sS'n'
p119
I78
sS'r'
p120
I82
sS'v'
p121
I86
sS'z'
p122
I90
sS'~'
p123
I94
sS'\x82'
p124
I97
sS'\x86'
p125
I101
sS'\x8a'
p126
I105
sS'\r'
p127
I2
sS'\x8e'
p128
I109
sS'\x92'
p129
I113
sS'\x96'
p130
I117
sS'\x9a'
p131
I121
sS'\x9e'
p132
I125
sS'!'
p133
I4
sS'\xa2'
p134
I129
sS'%'
p135
I8
sS'\xa6'
p136
I133
sS')'
p137
I12
sS'\xaa'
p138
I137
sS'-'
p139
I16
sS'\xae'
p140
I141
sS'1'
p141
I20
sS'\xb2'
p142
I145
sS'5'
p143
I24
sS'9'
p144
I28
sS'\xba'
p145
I151
sS'='
p146
I31
sS'\xbe'
p147
I155
sS'A'
p148
I34
sS'\xc2'
p149
I157
sS'E'
p150
I38
sS'I'
p151
I42
sS'M'
p152
I46
sS'Q'
p153
I50
sS'U'
p154
I54
sS'Y'
p155
I58
sS']'
p156
I62
sS'a'
p157
I65
sS'\xe2'
p158
I160
sS'e'
p159
I69
sS'i'
p160
I73
sS'm'
p161
I77
sS'q'
p162
I81
sS'u'
p163
I85
sS'y'
p164
I89
sS'}'
p165
I93
s.