(dp0
I0
S'\x00'
p1
sI1
S'\n'
p2
sI2
S'\r'
p3
sI3
S' '
p4
sI4
S'!'
p5
sI5
S'"'
p6
sI6
S'#'
p7
sI7
S'$'
p8
sI8
S'%'
p9
sI9
S'&'
p10
sI10
S"'"
p11
sI11
S'('
p12
sI12
S')'
p13
sI13
S'*'
p14
sI14
S'+'
p15
sI15
S','
p16
sI16
S'-'
p17
sI17
S'.'
p18
sI18
S'/'
p19
sI19
S'0'
p20
sI20
S'1'
p21
sI21
S'2'
p22
sI22
S'3'
p23
sI23
S'4'
p24
sI24
S'5'
p25
sI25
S'6'
p26
sI26
S'7'
p27
sI27
S'8'
p28
sI28
S'9'
p29
sI29
S':'
p30
sI30
S';'
p31
sI31
S'='
p32
sI32
S'?'
p33
sI33
S'@'
p34
sI34
S'A'
p35
sI35
S'B'
p36
sI36
S'C'
p37
sI37
S'D'
p38
sI38
S'E'
p39
sI39
S'F'
p40
sI40
S'G'
p41
sI41
S'H'
p42
sI42
S'I'
p43
sI43
S'J'
p44
sI44
S'K'
p45
sI45
S'L'
p46
sI46
S'M'
p47
sI47
S'N'
p48
sI48
S'O'
p49
sI49
S'P'
p50
sI50
S'Q'
p51
sI51
S'R'
p52
sI52
S'S'
p53
sI53
S'T'
p54
sI54
S'U'
p55
sI55
S'V'
p56
sI56
S'W'
p57
sI57
S'X'
p58
sI58
S'Y'
p59
sI59
S'Z'
p60
sI60
S'['
p61
sI61
S'\\'
p62
sI62
S']'
p63
sI63
S'_'
p64
sI64
S'`'
p65
sI65
S'a'
p66
sI66
S'b'
p67
sI67
S'c'
p68
sI68
S'd'
p69
sI69
S'e'
p70
sI70
S'f'
p71
sI71
S'g'
p72
sI72
S'h'
p73
sI73
S'i'
p74
sI74
S'j'
p75
sI75
S'k'
p76
sI76
S'l'
p77
sI77
S'm'
p78
sI78
S'n'
p79
sI79
S'o'
p80
sI80
S'p'
p81
sI81
S'q'
p82
sI82
S'r'
p83
sI83
S's'
p84
sI84
S't'
p85
sI85
S'u'
p86
sI86
S'v'
p87
sI87
S'w'
p88
sI88
S'x'
p89
sI89
S'y'
p90
sI90
S'z'
p91
sI91
S'{'
p92
sI92
S'|'
p93
sI93
S'}'
p94
sI94
S'~'
p95
sI95
S'\x80'
p96
sI96
S'\x81'
p97
sI97
S'\x82'
p98
sI98
S'\x83'
p99
sI99
S'\x84'
p100
sI100
S'\x85'
p101
sI101
S'\x86'
p102
sI102
S'\x87'
p103
sI103
S'\x88'
p104
sI104
S'\x89'
p105
sI105
S'\x8a'
p106
sI106
S'\x8b'
p107
sI107
S'\x8c'
p108
sI108
S'\x8d'
p109
sI109
S'\x8e'
p110
sI110
S'\x8f'
p111
sI111
S'\x90'
p112
sI112
S'\x91'
p113
sI113
S'\x92'
p114
sI114
S'\x93'
p115
sI115
S'\x94'
p116
sI116
S'\x95'
p117
sI117
S'\x96'
p118
sI118
S'\x97'
p119
sI119
S'\x98'
p120
sI120
S'\x99'
p121
sI121
S'\x9a'
p122
sI122
S'\x9b'
p123
sI123
S'\x9c'
p124
sI124
S'\x9d'
p125
sI125
S'\x9e'
p126
sI126
S'\x9f'
p127
sI127
S'\xa0'
p128
sI128
S'\xa1'
p129
sI129
S'\xa2'
p130
sI130
S'\xa3'
p131
sI131
S'\xa4'
p132
sI132
S'\xa5'
p133
sI133
S'\xa6'
p134
sI134
S'\xa7'
p135
sI135
S'\xa8'
p136
sI136
S'\xa9'
p137
sI137
S'\xaa'
p138
sI138
S'\xab'
p139
sI139
S'\xac'
p140
sI140
S'\xad'
p141
sI141
S'\xae'
p142
sI142
S'\xaf'
p143
sI143
S'\xb0'
p144
sI144
S'\xb1'
p145
sI145
S'\xb2'
p146
sI146
S'\xb3'
p147
sI147
S'\xb4'
p148
sI148
S'\xb7'
p149
sI149
S'\xb8'
p150
sI150
S'\xb9'
p151
sI151
S'\xba'
p152
sI152
S'\xbb'
p153
sI153
S'\xbc'
p154
sI154
S'\xbd'
p155
sI155
S'\xbe'
p156
sI156
S'\xbf'
p157
sI157
S'\xc2'
p158
sI158
S'\xc3'
p159
sI159
S'\xc4'
p160
sI160
S'\xe2'
p161
sI161
S'\xe3'
p162
sI162
S'\xef'
p163
sI163
S'\xf0'
p164
sI164
S'\xf4'
p165
s.